WRITE THREADID 0 FUNCNAME main OFFSET 8 SYNCS ASYNC id 1 INVNO 0
WRITE THREADID 0 FUNCNAME main OFFSET 80 SYNCS ASYNC id 2 INVNO 0
READ THREADID 0 FUNCNAME main OFFSET 80 SYNCS ASYNC id 3 INVNO 0
CALL THREADID 0 CALLERNAME main CALLEENAME _Z3foo7foo_str id 4 INVNO 0
WRITE THREADID 0 FUNCNAME _Z3foo7foo_str OFFSET 16 SYNCS ASYNC id 5 INVNO 1
READ THREADID 0 FUNCNAME _Z3foo7foo_str OFFSET 16 SYNCS ASYNC id 6 INVNO 1
WRITE THREADID 0 FUNCNAME main OFFSET 64 SYNCS ASYNC id 7 INVNO 0
CALL THREADID 0 CALLERNAME main CALLEENAME _ZN5SnakeC1Ev id 8 INVNO 0
WRITE THREADID 0 FUNCNAME _ZN5SnakeC1Ev OFFSET 8 SYNCS ASYNC id 9 INVNO 1
READ THREADID 0 FUNCNAME _ZN5SnakeC1Ev OFFSET 8 SYNCS ASYNC id 10 INVNO 1
CALL THREADID 0 CALLERNAME _ZN5SnakeC1Ev CALLEENAME _ZN11LivingThingC1Ev id 11 INVNO 1
WRITE THREADID 0 FUNCNAME _ZN11LivingThingC1Ev OFFSET 8 SYNCS ASYNC id 12 INVNO 1
READ THREADID 0 FUNCNAME _ZN11LivingThingC1Ev OFFSET 8 SYNCS ASYNC id 13 INVNO 1
WRITE THREADID 0 FUNCNAME _ZN11LivingThingC1Ev OFFSET 18446744073709551511 SYNCS ASYNC id 14 INVNO 1
READ THREADID 0 FUNCNAME _ZN5SnakeC1Ev OFFSET 8 SYNCS ASYNC id 15 INVNO 1
CALL THREADID 0 CALLERNAME _ZN5SnakeC1Ev CALLEENAME _ZN6AnimalC2Ev id 16 INVNO 1
WRITE THREADID 0 FUNCNAME _ZN6AnimalC2Ev OFFSET 8 SYNCS ASYNC id 17 INVNO 1
WRITE THREADID 0 FUNCNAME _ZN6AnimalC2Ev OFFSET 16 SYNCS ASYNC id 18 INVNO 1
READ THREADID 0 FUNCNAME _ZN6AnimalC2Ev OFFSET 16 SYNCS ASYNC id 19 INVNO 1
READ THREADID 0 FUNCNAME _ZN6AnimalC2Ev OFFSET 140735216027616 SYNCS ASYNC id 20 INVNO 1
READ THREADID 0 FUNCNAME _ZN6AnimalC2Ev OFFSET 8 SYNCS ASYNC id 21 INVNO 1
WRITE THREADID 0 FUNCNAME _ZN6AnimalC2Ev OFFSET 18446744073709551536 SYNCS ASYNC id 22 INVNO 1
READ THREADID 0 FUNCNAME _ZN6AnimalC2Ev OFFSET 8 SYNCS ASYNC id 23 INVNO 1
WRITE THREADID 0 FUNCNAME _ZN6AnimalC2Ev OFFSET 18446744073709551528 SYNCS ASYNC id 24 INVNO 1
READ THREADID 0 FUNCNAME _ZN5SnakeC1Ev OFFSET 8 SYNCS ASYNC id 25 INVNO 1
CALL THREADID 0 CALLERNAME _ZN5SnakeC1Ev CALLEENAME _ZN7ReptileC2Ev id 26 INVNO 1
WRITE THREADID 0 FUNCNAME _ZN7ReptileC2Ev OFFSET 8 SYNCS ASYNC id 27 INVNO 1
WRITE THREADID 0 FUNCNAME _ZN7ReptileC2Ev OFFSET 16 SYNCS ASYNC id 28 INVNO 1
READ THREADID 0 FUNCNAME _ZN7ReptileC2Ev OFFSET 16 SYNCS ASYNC id 29 INVNO 1
READ THREADID 0 FUNCNAME _ZN7ReptileC2Ev OFFSET 140735216027608 SYNCS ASYNC id 30 INVNO 1
READ THREADID 0 FUNCNAME _ZN7ReptileC2Ev OFFSET 8 SYNCS ASYNC id 31 INVNO 1
WRITE THREADID 0 FUNCNAME _ZN7ReptileC2Ev OFFSET 18446744073709551520 SYNCS ASYNC id 32 INVNO 1
READ THREADID 0 FUNCNAME _ZN7ReptileC2Ev OFFSET 8 SYNCS ASYNC id 33 INVNO 1
WRITE THREADID 0 FUNCNAME _ZN7ReptileC2Ev OFFSET 18446744073709551512 SYNCS ASYNC id 34 INVNO 1
READ THREADID 0 FUNCNAME _ZN5SnakeC1Ev OFFSET 8 SYNCS ASYNC id 35 INVNO 1
WRITE THREADID 0 FUNCNAME _ZN5SnakeC1Ev OFFSET 18446744073709551568 SYNCS ASYNC id 36 INVNO 1
READ THREADID 0 FUNCNAME _ZN5SnakeC1Ev OFFSET 8 SYNCS ASYNC id 37 INVNO 1
WRITE THREADID 0 FUNCNAME _ZN5SnakeC1Ev OFFSET 18446744073709551552 SYNCS ASYNC id 38 INVNO 1
CALL THREADID 0 CALLERNAME main CALLEENAME _ZN5Snake5crawlEv id 39 INVNO 0
WRITE THREADID 0 FUNCNAME _ZN5Snake5crawlEv OFFSET 8 SYNCS ASYNC id 40 INVNO 1
READ THREADID 0 FUNCNAME _ZN5Snake5crawlEv OFFSET 8 SYNCS ASYNC id 41 INVNO 1
CALL THREADID 0 CALLERNAME _ZN5Snake5crawlEv CALLEENAME _ZN6Animal7breatheEv id 42 INVNO 1
WRITE THREADID 0 FUNCNAME _ZN6Animal7breatheEv OFFSET 8 SYNCS ASYNC id 43 INVNO 1
READ THREADID 0 FUNCNAME _ZN6Animal7breatheEv OFFSET 8 SYNCS ASYNC id 44 INVNO 1
READ THREADID 0 FUNCNAME _ZN6Animal7breatheEv OFFSET 18446744073709551528 SYNCS ASYNC id 45 INVNO 1
READ THREADID 0 FUNCNAME _ZN6Animal7breatheEv OFFSET 8 SYNCS ASYNC id 46 INVNO 1
WRITE THREADID 0 FUNCNAME _ZN6Animal7breatheEv OFFSET 18446744073709551528 SYNCS ASYNC id 47 INVNO 1
READ THREADID 0 FUNCNAME _ZN5Snake5crawlEv OFFSET 8 SYNCS ASYNC id 48 INVNO 1
WRITE THREADID 0 FUNCNAME _ZN5Snake5crawlEv OFFSET 18446744073709551544 SYNCS ASYNC id 49 INVNO 1
READ THREADID 0 FUNCNAME main OFFSET 8 SYNCS ASYNC id 50 INVNO 0
